; Function Attrs: mustprogress uwtable
define hidden void @_ZN13hilbert_basis7recycleENS_8offset_tE(ptr noundef nonnull align 8 dereferenceable(127) %this, i32 %idx.coerce) local_unnamed_addr #3 align 2 {
entry:
  %ref.tmp = alloca %"class.hilbert_basis::values", align 8
  %m_index = getelementptr inbounds i8, ptr %this, i64 104
  %0 = load ptr, ptr %m_index, align 8
  %m_ineqs.i = getelementptr inbounds i8, ptr %this, i64 8
  %1 = load ptr, ptr %m_ineqs.i, align 8
  %cmp.i.i = icmp eq ptr %1, null
  br i1 %cmp.i.i, label %_ZNK13hilbert_basis3vecENS_8offset_tE.exit, label %if.end.i.i

if.end.i.i:                                       ; preds = %entry
  %arrayidx.i.i = getelementptr inbounds i8, ptr %1, i64 -4
  %2 = load i32, ptr %arrayidx.i.i, align 4
  %3 = zext i32 %2 to i64
  br label %_ZNK13hilbert_basis3vecENS_8offset_tE.exit

_ZNK13hilbert_basis3vecENS_8offset_tE.exit:       ; preds = %entry, %if.end.i.i
  %retval.0.i.i = phi i64 [ %3, %if.end.i.i ], [ 0, %entry ]
  %m_store.i = getelementptr inbounds i8, ptr %this, i64 24
  %4 = load ptr, ptr %m_store.i, align 8
  %idx.ext.i = zext i32 %idx.coerce to i64
  %add.ptr.i = getelementptr inbounds %class.checked_int64, ptr %4, i64 %idx.ext.i
  %add.ptr.i.i = getelementptr inbounds %class.checked_int64, ptr %add.ptr.i, i64 %retval.0.i.i
  store ptr %add.ptr.i.i, ptr %ref.tmp, align 8
  call void @_ZN13hilbert_basis5index6removeENS_8offset_tERKNS_6valuesE(ptr noundef nonnull align 8 dereferenceable(1340) %0, i32 %idx.coerce, ptr noundef nonnull align 8 dereferenceable(8) %ref.tmp)
  %m_free_list = getelementptr inbounds i8, ptr %this, i64 40
  %5 = load ptr, ptr %m_free_list, align 8
  %cmp.i = icmp eq ptr %5, null
  br i1 %cmp.i, label %if.then.i, label %lor.lhs.false.i

lor.lhs.false.i:                                  ; preds = %_ZNK13hilbert_basis3vecENS_8offset_tE.exit
  %arrayidx.i = getelementptr inbounds i8, ptr %5, i64 -4
  %6 = load i32, ptr %arrayidx.i, align 4
  %arrayidx4.i = getelementptr inbounds i8, ptr %5, i64 -8
  %7 = load i32, ptr %arrayidx4.i, align 4
  %cmp5.i = icmp eq i32 %6, %7
  br i1 %cmp5.i, label %if.then.i, label %_ZN6vectorIN13hilbert_basis8offset_tELb0EjE9push_backERKS1_.exit

if.then.i:                                        ; preds = %lor.lhs.false.i, %_ZNK13hilbert_basis3vecENS_8offset_tE.exit
  call void @_ZN6vectorIN13hilbert_basis8offset_tELb0EjE13expand_vectorEv(ptr noundef nonnull align 8 dereferenceable(8) %m_free_list)
  %.pre.i = load ptr, ptr %m_free_list, align 8
  %arrayidx8.phi.trans.insert.i = getelementptr inbounds i8, ptr %.pre.i, i64 -4
  %.pre1.i = load i32, ptr %arrayidx8.phi.trans.insert.i, align 4
  br label %_ZN6vectorIN13hilbert_basis8offset_tELb0EjE9push_backERKS1_.exit

_ZN6vectorIN13hilbert_basis8offset_tELb0EjE9push_backERKS1_.exit: ; preds = %lor.lhs.false.i, %if.then.i
  %8 = phi i32 [ %.pre1.i, %if.then.i ], [ %6, %lor.lhs.false.i ]
  %9 = phi ptr [ %.pre.i, %if.then.i ], [ %5, %lor.lhs.false.i ]
  %idx.ext.i1 = zext i32 %8 to i64
  %add.ptr.i2 = getelementptr inbounds %"struct.hilbert_basis::offset_t", ptr %9, i64 %idx.ext.i1
  store i32 %idx.coerce, ptr %add.ptr.i2, align 4
  %10 = load ptr, ptr %m_free_list, align 8
  %arrayidx10.i = getelementptr inbounds i8, ptr %10, i64 -4
  %11 = load i32, ptr %arrayidx10.i, align 4
  %inc.i = add i32 %11, 1
  store i32 %inc.i, ptr %arrayidx10.i, align 4
  ret void
}